; ModuleID = '60/1604.c'
source_filename = "60/1604.c"
target datalayout = "e-m:e-p270:32:32-p271:32:32-p272:64:64-i64:64-f80:128-n8:16:32:64-S128"
target triple = "x86_64-pc-linux-gnu"

@.str = private unnamed_addr constant [3 x i8] c"%d\00", align 1
@.str.1 = private unnamed_addr constant [7 x i8] c"%d %d\0A\00", align 1
@.str.2 = private unnamed_addr constant [7 x i8] c"empty\0A\00", align 1

; Function Attrs: noinline nounwind uwtable
define dso_local i32 @main() #0 {
  %1 = alloca i32, align 4
  %2 = alloca i32, align 4
  %3 = alloca i32, align 4
  %4 = alloca i32, align 4
  %5 = alloca i32, align 4
  %6 = alloca i32, align 4
  %7 = alloca i32, align 4
  %8 = alloca i32, align 4
  store i32 0, i32* %1, align 4
  %9 = call i32 (i8*, ...) @__isoc99_scanf(i8* getelementptr inbounds ([3 x i8], [3 x i8]* @.str, i64 0, i64 0), i32* %4)
  store i32 0, i32* %8, align 4
  store i32 2, i32* %2, align 4
  br label %10

10:                                               ; preds = %83, %0
  %11 = load i32, i32* %2, align 4
  %12 = load i32, i32* %4, align 4
  %13 = icmp sle i32 %11, %12
  br i1 %13, label %14, label %86

14:                                               ; preds = %10
  %15 = load i32, i32* %2, align 4
  %16 = sitofp i32 %15 to double
  %17 = call double @sqrt(double %16) #3
  %18 = fptosi double %17 to i32
  store i32 %18, i32* %5, align 4
  store i32 2, i32* %6, align 4
  br label %19

19:                                               ; preds = %30, %14
  %20 = load i32, i32* %6, align 4
  %21 = load i32, i32* %5, align 4
  %22 = icmp sle i32 %20, %21
  br i1 %22, label %23, label %33

23:                                               ; preds = %19
  %24 = load i32, i32* %2, align 4
  %25 = load i32, i32* %6, align 4
  %26 = srem i32 %24, %25
  %27 = icmp eq i32 %26, 0
  br i1 %27, label %28, label %29

28:                                               ; preds = %23
  br label %33

29:                                               ; preds = %23
  br label %30

30:                                               ; preds = %29
  %31 = load i32, i32* %6, align 4
  %32 = add nsw i32 %31, 1
  store i32 %32, i32* %6, align 4
  br label %19

33:                                               ; preds = %28, %19
  %34 = load i32, i32* %2, align 4
  %35 = load i32, i32* %6, align 4
  %36 = srem i32 %34, %35
  %37 = icmp eq i32 %36, 0
  br i1 %37, label %38, label %39

38:                                               ; preds = %33
  br label %83

39:                                               ; preds = %33
  %40 = load i32, i32* %6, align 4
  %41 = load i32, i32* %5, align 4
  %42 = add nsw i32 %41, 1
  %43 = icmp sge i32 %40, %42
  br i1 %43, label %44, label %47

44:                                               ; preds = %39
  %45 = load i32, i32* %2, align 4
  %46 = add nsw i32 %45, 2
  store i32 %46, i32* %3, align 4
  br label %47

47:                                               ; preds = %44, %39
  %48 = load i32, i32* %3, align 4
  %49 = load i32, i32* %4, align 4
  %50 = icmp sle i32 %48, %49
  br i1 %50, label %51, label %82

51:                                               ; preds = %47
  %52 = load i32, i32* %3, align 4
  %53 = sitofp i32 %52 to double
  %54 = call double @sqrt(double %53) #3
  %55 = fptosi double %54 to i32
  store i32 %55, i32* %5, align 4
  store i32 2, i32* %7, align 4
  br label %56

56:                                               ; preds = %67, %51
  %57 = load i32, i32* %7, align 4
  %58 = load i32, i32* %5, align 4
  %59 = icmp sle i32 %57, %58
  br i1 %59, label %60, label %70

60:                                               ; preds = %56
  %61 = load i32, i32* %3, align 4
  %62 = load i32, i32* %7, align 4
  %63 = srem i32 %61, %62
  %64 = icmp eq i32 %63, 0
  br i1 %64, label %65, label %66

65:                                               ; preds = %60
  br label %70

66:                                               ; preds = %60
  br label %67

67:                                               ; preds = %66
  %68 = load i32, i32* %7, align 4
  %69 = add nsw i32 %68, 1
  store i32 %69, i32* %7, align 4
  br label %56

70:                                               ; preds = %65, %56
  %71 = load i32, i32* %7, align 4
  %72 = load i32, i32* %5, align 4
  %73 = add nsw i32 %72, 1
  %74 = icmp sge i32 %71, %73
  br i1 %74, label %75, label %81

75:                                               ; preds = %70
  %76 = load i32, i32* %2, align 4
  %77 = load i32, i32* %3, align 4
  %78 = call i32 (i8*, ...) @printf(i8* getelementptr inbounds ([7 x i8], [7 x i8]* @.str.1, i64 0, i64 0), i32 %76, i32 %77)
  %79 = load i32, i32* %8, align 4
  %80 = add nsw i32 %79, 1
  store i32 %80, i32* %8, align 4
  br label %81

81:                                               ; preds = %75, %70
  br label %82

82:                                               ; preds = %81, %47
  br label %83

83:                                               ; preds = %82, %38
  %84 = load i32, i32* %2, align 4
  %85 = add nsw i32 %84, 1
  store i32 %85, i32* %2, align 4
  br label %10

86:                                               ; preds = %10
  %87 = load i32, i32* %8, align 4
  %88 = icmp eq i32 %87, 0
  br i1 %88, label %89, label %91

89:                                               ; preds = %86
  %90 = call i32 (i8*, ...) @printf(i8* getelementptr inbounds ([7 x i8], [7 x i8]* @.str.2, i64 0, i64 0))
  br label %91

91:                                               ; preds = %89, %86
  ret i32 0
}

declare dso_local i32 @__isoc99_scanf(i8*, ...) #1

; Function Attrs: nounwind
declare dso_local double @sqrt(double) #2

declare dso_local i32 @printf(i8*, ...) #1


!llvm.module.flags = !{!0}
!llvm.ident = !{!1}

!0 = !{i32 1, !"wchar_size", i32 4}
!1 = !{!"clang version 10.0.0-4ubuntu1 "}
